target datalayout = "e-m:e-p270:32:32-p271:32:32-p272:64:64-i64:64-i128:128-f80:128-n8:16:32:64-S128"
target triple = "x86_64-pc-linux-gnu"

%struct.tag_AlsaPcmInfo = type { ptr, ptr, ptr, i32, i32, i32, i64, i16, i16, ptr }

; Function Attrs: nounwind uwtable
define hidden i32 @xrun_recovery(ptr noundef %0, i32 noundef %1) #0 {
  %3 = alloca i32, align 4
  %4 = alloca ptr, align 8
  %5 = alloca i32, align 4
  %6 = alloca i32, align 4
  store ptr %0, ptr %4, align 8
  store i32 %1, ptr %5, align 4
  %7 = load i32, ptr %5, align 4
  %8 = icmp eq i32 %7, -32
  br i1 %8, label %9, label %18

9:                                                ; preds = %2
  %10 = load ptr, ptr %4, align 8
  %11 = getelementptr inbounds %struct.tag_AlsaPcmInfo, ptr %10, i32 0, i32 0
  %12 = load ptr, ptr %11, align 8
  %13 = call i32 @snd_pcm_prepare(ptr noundef %12)
  store i32 %13, ptr %6, align 4
  %14 = load i32, ptr %6, align 4
  %15 = icmp slt i32 %14, 0
  br i1 %15, label %16, label %17

16:                                               ; preds = %9
  store i32 -1, ptr %3, align 4
  br label %49

17:                                               ; preds = %9
  store i32 1, ptr %3, align 4
  br label %49

18:                                               ; preds = %2
  %19 = load i32, ptr %5, align 4
  %20 = icmp eq i32 %19, -86
  br i1 %20, label %21, label %42

21:                                               ; preds = %18
  %22 = load ptr, ptr %4, align 8
  %23 = getelementptr inbounds %struct.tag_AlsaPcmInfo, ptr %22, i32 0, i32 0
  %24 = load ptr, ptr %23, align 8
  %25 = call i32 @snd_pcm_resume(ptr noundef %24)
  store i32 %25, ptr %6, align 4
  %26 = load i32, ptr %6, align 4
  %27 = icmp slt i32 %26, 0
  br i1 %27, label %28, label %33

28:                                               ; preds = %21
  %29 = load i32, ptr %6, align 4
  %30 = icmp eq i32 %29, -11
  br i1 %30, label %31, label %32

31:                                               ; preds = %28
  store i32 0, ptr %3, align 4
  br label %49

32:                                               ; preds = %28
  store i32 -1, ptr %3, align 4
  br label %49

33:                                               ; preds = %21
  %34 = load ptr, ptr %4, align 8
  %35 = getelementptr inbounds %struct.tag_AlsaPcmInfo, ptr %34, i32 0, i32 0
  %36 = load ptr, ptr %35, align 8
  %37 = call i32 @snd_pcm_prepare(ptr noundef %36)
  store i32 %37, ptr %6, align 4
  %38 = load i32, ptr %6, align 4
  %39 = icmp slt i32 %38, 0
  br i1 %39, label %40, label %41

40:                                               ; preds = %33
  store i32 -1, ptr %3, align 4
  br label %49

41:                                               ; preds = %33
  store i32 1, ptr %3, align 4
  br label %49

42:                                               ; preds = %18
  %43 = load i32, ptr %5, align 4
  %44 = icmp eq i32 %43, -11
  br i1 %44, label %45, label %46

45:                                               ; preds = %42
  store i32 0, ptr %3, align 4
  br label %49

46:                                               ; preds = %42
  br label %47

47:                                               ; preds = %46
  br label %48

48:                                               ; preds = %47
  store i32 -1, ptr %3, align 4
  br label %49

49:                                               ; preds = %48, %45, %41, %40, %32, %31, %17, %16
  %50 = load i32, ptr %3, align 4
  ret i32 %50
}

; Function Attrs: nounwind uwtable
define hidden i32 @DAUDIO_Write(ptr noundef %0, ptr noundef %1, i32 noundef %2) #0 {
  %4 = alloca i32, align 4
  %5 = alloca ptr, align 8
  %6 = alloca ptr, align 8
  %7 = alloca i32, align 4
  %8 = alloca ptr, align 8
  %9 = alloca i32, align 4
  %10 = alloca i32, align 4
  %11 = alloca i64, align 8
  %12 = alloca i64, align 8
  store ptr %0, ptr %5, align 8
  store ptr %1, ptr %6, align 8
  store i32 %2, ptr %7, align 4
  %13 = load ptr, ptr %5, align 8
  store ptr %13, ptr %8, align 8
  %14 = load i32, ptr %7, align 4
  %15 = icmp sle i32 %14, 0
  br i1 %15, label %21, label %16

16:                                               ; preds = %3
  %17 = load ptr, ptr %8, align 8
  %18 = getelementptr inbounds %struct.tag_AlsaPcmInfo, ptr %17, i32 0, i32 4
  %19 = load i32, ptr %18, align 4
  %20 = icmp sle i32 %19, 0
  br i1 %20, label %21, label %22

21:                                               ; preds = %16, %3
  store i32 -1, ptr %4, align 4
  br label %71

22:                                               ; preds = %16
  store i32 2, ptr %10, align 4
  %23 = load i32, ptr %7, align 4
  %24 = load ptr, ptr %8, align 8
  %25 = getelementptr inbounds %struct.tag_AlsaPcmInfo, ptr %24, i32 0, i32 4
  %26 = load i32, ptr %25, align 4
  %27 = sdiv i32 %23, %26
  %28 = sext i32 %27 to i64
  store i64 %28, ptr %11, align 8
  br label %29

29:                                               ; preds = %55, %22
  %30 = load ptr, ptr %8, align 8
  %31 = getelementptr inbounds %struct.tag_AlsaPcmInfo, ptr %30, i32 0, i32 0
  %32 = load ptr, ptr %31, align 8
  %33 = load ptr, ptr %6, align 8
  %34 = load i64, ptr %11, align 8
  %35 = call i64 @snd_pcm_writei(ptr noundef %32, ptr noundef %33, i64 noundef %34)
  store i64 %35, ptr %12, align 8
  %36 = load i64, ptr %12, align 8
  %37 = icmp slt i64 %36, 0
  br i1 %37, label %38, label %53

38:                                               ; preds = %29
  %39 = load ptr, ptr %8, align 8
  %40 = load i64, ptr %12, align 8
  %41 = trunc i64 %40 to i32
  %42 = call i32 @xrun_recovery(ptr noundef %39, i32 noundef %41)
  store i32 %42, ptr %9, align 4
  %43 = load i32, ptr %9, align 4
  %44 = icmp sle i32 %43, 0
  br i1 %44, label %45, label %47

45:                                               ; preds = %38
  %46 = load i32, ptr %9, align 4
  store i32 %46, ptr %4, align 4
  br label %71

47:                                               ; preds = %38
  %48 = load i32, ptr %10, align 4
  %49 = add nsw i32 %48, -1
  store i32 %49, ptr %10, align 4
  %50 = icmp sle i32 %48, 0
  br i1 %50, label %51, label %52

51:                                               ; preds = %47
  store i32 -1, ptr %4, align 4
  br label %71

52:                                               ; preds = %47
  br label %54

53:                                               ; preds = %29
  br label %56

54:                                               ; preds = %52
  br label %55

55:                                               ; preds = %54
  br i1 true, label %29, label %56

56:                                               ; preds = %55, %53
  %57 = load i64, ptr %12, align 8
  %58 = icmp sgt i64 %57, 0
  br i1 %58, label %59, label %62

59:                                               ; preds = %56
  %60 = load ptr, ptr %8, align 8
  %61 = getelementptr inbounds %struct.tag_AlsaPcmInfo, ptr %60, i32 0, i32 8
  store i16 0, ptr %61, align 2
  br label %62

62:                                               ; preds = %59, %56
  %63 = load i64, ptr %12, align 8
  %64 = load ptr, ptr %8, align 8
  %65 = getelementptr inbounds %struct.tag_AlsaPcmInfo, ptr %64, i32 0, i32 4
  %66 = load i32, ptr %65, align 4
  %67 = sext i32 %66 to i64
  %68 = mul nsw i64 %63, %67
  %69 = trunc i64 %68 to i32
  store i32 %69, ptr %9, align 4
  %70 = load i32, ptr %9, align 4
  store i32 %70, ptr %4, align 4
  br label %71

71:                                               ; preds = %62, %51, %45, %21
  %72 = load i32, ptr %4, align 4
  ret i32 %72
}