; Function Attrs: nounwind uwtable
define hidden i32 @DAUDIO_Write(ptr nocapture noundef %0, ptr noundef %1, i32 noundef %2) local_unnamed_addr #0 {
  %4 = icmp slt i32 %2, 1
  br i1 %4, label %xrun_recovery.exit.thread, label %5

5:                                                ; preds = %3
  %6 = getelementptr inbounds i8, ptr %0, i64 28
  %7 = load i32, ptr %6, align 4
  %8 = icmp slt i32 %7, 1
  br i1 %8, label %xrun_recovery.exit.thread, label %9

9:                                                ; preds = %5
  %10 = udiv i32 %2, %7
  %11 = zext nneg i32 %10 to i64
  br label %12

12:                                               ; preds = %xrun_recovery.exit, %9
  %.019 = phi i32 [ 2, %9 ], [ %30, %xrun_recovery.exit ]
  %13 = load ptr, ptr %0, align 8
  %14 = tail call i64 @snd_pcm_writei(ptr noundef %13, ptr noundef %1, i64 noundef %11) #8
  %15 = icmp slt i64 %14, 0
  br i1 %15, label %16, label %32

16:                                               ; preds = %12
  %17 = trunc i64 %14 to i32
  switch i32 %17, label %xrun_recovery.exit.thread [
    i32 -32, label %18
    i32 -86, label %21
    i32 -11, label %xrun_recovery.exit.thread.loopexit
  ]

18:                                               ; preds = %16
  %19 = load ptr, ptr %0, align 8
  %20 = tail call i32 @snd_pcm_prepare(ptr noundef %19) #8
  %.inv14.i = icmp sgt i32 %20, -1
  br i1 %.inv14.i, label %xrun_recovery.exit, label %xrun_recovery.exit.thread

21:                                               ; preds = %16
  %22 = load ptr, ptr %0, align 8
  %23 = tail call i32 @snd_pcm_resume(ptr noundef %22) #8
  %24 = icmp slt i32 %23, 0
  br i1 %24, label %25, label %27

25:                                               ; preds = %21
  %26 = icmp ne i32 %23, -11
  %.12.i = sext i1 %26 to i32
  br label %xrun_recovery.exit.thread

27:                                               ; preds = %21
  %28 = load ptr, ptr %0, align 8
  %29 = tail call i32 @snd_pcm_prepare(ptr noundef %28) #8
  %.inv.i = icmp sgt i32 %29, -1
  br i1 %.inv.i, label %xrun_recovery.exit, label %xrun_recovery.exit.thread

xrun_recovery.exit:                               ; preds = %27, %18
  %30 = add nsw i32 %.019, -1
  %31 = icmp eq i32 %.019, 0
  br i1 %31, label %xrun_recovery.exit.thread, label %12

32:                                               ; preds = %12
  %.not = icmp eq i64 %14, 0
  br i1 %.not, label %35, label %33

33:                                               ; preds = %32
  %34 = getelementptr inbounds i8, ptr %0, i64 50
  store i16 0, ptr %34, align 2
  br label %35

35:                                               ; preds = %33, %32
  %36 = load i32, ptr %6, align 4
  %37 = trunc i64 %14 to i32
  %38 = mul i32 %36, %37
  br label %xrun_recovery.exit.thread

xrun_recovery.exit.thread.loopexit:               ; preds = %16
  br label %xrun_recovery.exit.thread

xrun_recovery.exit.thread:                        ; preds = %27, %18, %xrun_recovery.exit, %16, %xrun_recovery.exit.thread.loopexit, %25, %3, %5, %35
  %.0 = phi i32 [ %38, %35 ], [ -1, %5 ], [ -1, %3 ], [ %.12.i, %25 ], [ 0, %xrun_recovery.exit.thread.loopexit ], [ -1, %16 ], [ -1, %xrun_recovery.exit ], [ -1, %18 ], [ -1, %27 ]
  ret i32 %.0
}